; Function Attrs: nounwind uwtable
define internal range(i32 -2147483648, 1) i32 @vaapi_encode_h264_write_slice_header(ptr noundef %0, ptr readnone captures(none) %1, ptr readnone captures(none) %2, ptr noundef writeonly captures(none) %3, ptr noundef captures(none) %4) #3 {
  %6 = getelementptr inbounds nuw i8, ptr %0, i64 32
  %7 = load ptr, ptr %6, align 8, !tbaa !4
  %8 = getelementptr inbounds nuw i8, ptr %7, i64 5936
  %9 = getelementptr inbounds nuw i8, ptr %7, i64 8344
  %10 = load i32, ptr %9, align 8, !tbaa !199
  %.not = icmp eq i32 %10, 0
  br i1 %.not, label %20, label %11

11:                                               ; preds = %5
  %12 = getelementptr inbounds nuw i8, ptr %7, i64 5984
  %13 = getelementptr inbounds nuw i8, ptr %7, i64 5985
  %14 = load i8, ptr %13, align 1, !tbaa !275
  %15 = zext i8 %14 to i32
  %16 = tail call i32 @ff_cbs_insert_unit_content(ptr noundef nonnull %8, i32 noundef -1, i32 noundef %15, ptr noundef nonnull %12, ptr noundef null) #10
  %17 = icmp slt i32 %16, 0
  br i1 %17, label %vaapi_encode_h264_add_nal.exit.thread, label %vaapi_encode_h264_add_nal.exit

vaapi_encode_h264_add_nal.exit.thread:            ; preds = %11
  %18 = load i8, ptr %13, align 1, !tbaa !275
  %19 = zext i8 %18 to i32
  tail call void (ptr, i32, ptr, ...) @av_log(ptr noundef nonnull %0, i32 noundef 16, ptr noundef nonnull @.str.129, i32 noundef %19) #10
  br label %vaapi_encode_h264_write_access_unit.exit

vaapi_encode_h264_add_nal.exit:                   ; preds = %11
  store i32 0, ptr %9, align 8, !tbaa !199
  br label %20

20:                                               ; preds = %vaapi_encode_h264_add_nal.exit, %5
  %21 = getelementptr inbounds nuw i8, ptr %7, i64 5992
  %22 = getelementptr inbounds nuw i8, ptr %7, i64 5993
  %23 = load i8, ptr %22, align 1, !tbaa !275
  %24 = zext i8 %23 to i32
  %25 = tail call i32 @ff_cbs_insert_unit_content(ptr noundef nonnull %8, i32 noundef -1, i32 noundef %24, ptr noundef nonnull %21, ptr noundef null) #10
  %26 = icmp slt i32 %25, 0
  br i1 %26, label %vaapi_encode_h264_add_nal.exit20.thread, label %vaapi_encode_h264_add_nal.exit20

vaapi_encode_h264_add_nal.exit20.thread:          ; preds = %20
  %27 = load i8, ptr %22, align 1, !tbaa !275
  %28 = zext i8 %27 to i32
  tail call void (ptr, i32, ptr, ...) @av_log(ptr noundef nonnull %0, i32 noundef 16, ptr noundef nonnull @.str.129, i32 noundef %28) #10
  br label %vaapi_encode_h264_write_access_unit.exit

vaapi_encode_h264_add_nal.exit20:                 ; preds = %20
  %29 = load ptr, ptr %6, align 8, !tbaa !4
  %30 = getelementptr inbounds nuw i8, ptr %29, i64 5928
  %31 = load ptr, ptr %30, align 8, !tbaa !276
  %32 = tail call i32 @ff_cbs_write_fragment_data(ptr noundef %31, ptr noundef nonnull %8) #10
  %33 = icmp slt i32 %32, 0
  br i1 %33, label %34, label %35

34:                                               ; preds = %vaapi_encode_h264_add_nal.exit20
  tail call void (ptr, i32, ptr, ...) @av_log(ptr noundef nonnull %0, i32 noundef 16, ptr noundef nonnull @.str.130) #10
  br label %vaapi_encode_h264_write_access_unit.exit

35:                                               ; preds = %vaapi_encode_h264_add_nal.exit20
  %36 = load i64, ptr %4, align 8, !tbaa !205
  %37 = getelementptr inbounds nuw i8, ptr %7, i64 5944
  %38 = load i64, ptr %37, align 8, !tbaa !277
  %39 = shl i64 %38, 3
  %40 = getelementptr inbounds nuw i8, ptr %7, i64 5952
  %41 = load i64, ptr %40, align 8, !tbaa !278
  %42 = sub i64 %39, %41
  %43 = icmp ult i64 %36, %42
  br i1 %43, label %44, label %45

44:                                               ; preds = %35
  tail call void (ptr, i32, ptr, ...) @av_log(ptr noundef nonnull %0, i32 noundef 16, ptr noundef nonnull @.str.131, i64 noundef %36, i64 noundef %42) #10
  br label %vaapi_encode_h264_write_access_unit.exit

45:                                               ; preds = %35
  %46 = load ptr, ptr %8, align 8, !tbaa !279
  tail call void @llvm.memcpy.p0.p0.i64(ptr align 1 %3, ptr align 1 %46, i64 %38, i1 false)
  %47 = load i64, ptr %37, align 8, !tbaa !277
  %48 = shl i64 %47, 3
  %49 = load i64, ptr %40, align 8, !tbaa !278
  %50 = sub i64 %48, %49
  store i64 %50, ptr %4, align 8, !tbaa !205
  br label %vaapi_encode_h264_write_access_unit.exit

vaapi_encode_h264_write_access_unit.exit:         ; preds = %45, %44, %34, %vaapi_encode_h264_add_nal.exit20.thread, %vaapi_encode_h264_add_nal.exit.thread
  %.0 = phi i32 [ %16, %vaapi_encode_h264_add_nal.exit.thread ], [ %25, %vaapi_encode_h264_add_nal.exit20.thread ], [ %32, %34 ], [ -28, %44 ], [ 0, %45 ]
  tail call void @ff_cbs_fragment_reset(ptr noundef nonnull %8) #10
  ret i32 %.0
}